; Function Attrs: nounwind uwtable
define zeroext range(i8 0, 2) i8 @l_Array_forIn_x27Unsafe_loop___at_Lean_Elab_Tactic_BVDecide_Frontend_Normalize_enumsPass_postprocess___spec__7___at_Lean_Elab_Tactic_BVDecide_Frontend_Normalize_enumsPass_postprocess___spec__8___lambda__1(ptr noundef %0) local_unnamed_addr #1 {
  %2 = ptrtoint ptr %0 to i64
  %3 = and i64 %2, 1
  %.not.i = icmp eq i64 %3, 0
  br i1 %.not.i, label %7, label %4

4:                                                ; preds = %1
  %5 = lshr i64 %2, 1
  %6 = trunc i64 %5 to i32
  br label %lean_obj_tag.exit

7:                                                ; preds = %1
  %8 = getelementptr i8, ptr %0, i64 4
  %.val.i = load i32, ptr %8, align 4
  %9 = lshr i32 %.val.i, 24
  br label %lean_obj_tag.exit

lean_obj_tag.exit:                                ; preds = %4, %7
  %.0.i = phi i32 [ %6, %4 ], [ %9, %7 ]
  %10 = icmp eq i32 %.0.i, 5
  br i1 %10, label %11, label %lean_string_dec_eq.exit.thread

11:                                               ; preds = %lean_obj_tag.exit
  %12 = getelementptr inbounds nuw i8, ptr %0, i64 8
  %13 = load ptr, ptr %12, align 8, !tbaa !11
  %14 = ptrtoint ptr %13 to i64
  %15 = and i64 %14, 1
  %.not.i17 = icmp eq i64 %15, 0
  br i1 %.not.i17, label %19, label %16

16:                                               ; preds = %11
  %17 = lshr i64 %14, 1
  %18 = trunc i64 %17 to i32
  br label %lean_obj_tag.exit20

19:                                               ; preds = %11
  %20 = getelementptr i8, ptr %13, i64 4
  %.val.i19 = load i32, ptr %20, align 4
  %21 = lshr i32 %.val.i19, 24
  br label %lean_obj_tag.exit20

lean_obj_tag.exit20:                              ; preds = %16, %19
  %.0.i18 = phi i32 [ %18, %16 ], [ %21, %19 ]
  %22 = icmp eq i32 %.0.i18, 4
  br i1 %22, label %23, label %lean_string_dec_eq.exit.thread

23:                                               ; preds = %lean_obj_tag.exit20
  %24 = getelementptr inbounds nuw i8, ptr %13, i64 8
  %25 = load ptr, ptr %24, align 8, !tbaa !11
  %26 = ptrtoint ptr %25 to i64
  %27 = and i64 %26, 1
  %.not.i21 = icmp eq i64 %27, 0
  br i1 %.not.i21, label %31, label %28

28:                                               ; preds = %23
  %29 = lshr i64 %26, 1
  %30 = trunc i64 %29 to i32
  br label %lean_obj_tag.exit24

31:                                               ; preds = %23
  %32 = getelementptr i8, ptr %25, i64 4
  %.val.i23 = load i32, ptr %32, align 4
  %33 = lshr i32 %.val.i23, 24
  br label %lean_obj_tag.exit24

lean_obj_tag.exit24:                              ; preds = %28, %31
  %.0.i22 = phi i32 [ %30, %28 ], [ %33, %31 ]
  %34 = icmp eq i32 %.0.i22, 1
  br i1 %34, label %35, label %lean_string_dec_eq.exit.thread

35:                                               ; preds = %lean_obj_tag.exit24
  %36 = getelementptr inbounds nuw i8, ptr %25, i64 16
  %37 = load ptr, ptr %36, align 8, !tbaa !11
  %38 = load ptr, ptr @l_Lean_Elab_Tactic_BVDecide_Frontend_Normalize_enumToBitVecSuffix, align 8, !tbaa !11
  %39 = icmp eq ptr %37, %38
  br i1 %39, label %lean_string_dec_eq.exit.thread25, label %40

40:                                               ; preds = %35
  %41 = getelementptr i8, ptr %37, i64 8
  %.val.i.i = load i64, ptr %41, align 8, !tbaa !9
  %42 = getelementptr i8, ptr %38, i64 8
  %.val7.i.i = load i64, ptr %42, align 8, !tbaa !9
  %43 = icmp eq i64 %.val.i.i, %.val7.i.i
  br i1 %43, label %lean_string_dec_eq.exit, label %lean_string_dec_eq.exit.thread

lean_string_dec_eq.exit:                          ; preds = %40
  %44 = tail call zeroext i1 @lean_string_eq_cold(ptr noundef nonnull %37, ptr noundef nonnull %38) #7
  br i1 %44, label %lean_string_dec_eq.exit.thread25, label %lean_string_dec_eq.exit.thread

lean_string_dec_eq.exit.thread25:                 ; preds = %35, %lean_string_dec_eq.exit
  %45 = tail call zeroext i8 @l_Lean_Expr_hasLooseBVars(ptr noundef nonnull %0) #7
  %46 = icmp eq i8 %45, 0
  %. = zext i1 %46 to i8
  br label %lean_string_dec_eq.exit.thread

lean_string_dec_eq.exit.thread:                   ; preds = %40, %lean_obj_tag.exit, %lean_obj_tag.exit24, %lean_string_dec_eq.exit.thread25, %lean_string_dec_eq.exit, %lean_obj_tag.exit20
  %.4 = phi i8 [ %., %lean_string_dec_eq.exit.thread25 ], [ 0, %lean_string_dec_eq.exit ], [ 0, %lean_obj_tag.exit24 ], [ 0, %lean_obj_tag.exit20 ], [ 0, %lean_obj_tag.exit ], [ 0, %40 ]
  ret i8 %.4
}